; Function Attrs: mustprogress nofree norecurse nosync nounwind sspstrong willreturn memory(readwrite, inaccessiblemem: none) uwtable
define dso_local range(i64 -22, 1) i64 @target_restore_altstack(ptr noundef readonly captures(none) %uss, ptr noundef readonly captures(none) %env) local_unnamed_addr #6 {
entry:
  %0 = tail call align 8 ptr @llvm.threadlocal.address.p0(ptr align 8 @thread_cpu)
  %1 = load ptr, ptr %0, align 8
  %opaque = getelementptr inbounds nuw i8, ptr %1, i64 624
  %2 = load ptr, ptr %opaque, align 16
  %uss.val = load i64, ptr %uss, align 1
  %ss_size = getelementptr inbounds nuw i8, ptr %uss, i64 16
  %ss_size.val = load i64, ptr %ss_size, align 1
  %3 = getelementptr i8, ptr %env, i64 16
  %env.val = load i64, ptr %3, align 16
  %sigaltstack_used.i = getelementptr inbounds nuw i8, ptr %2, i64 9168
  %4 = load i64, ptr %sigaltstack_used.i, align 8
  %sub.i = sub i64 %env.val, %4
  %ss_size.i = getelementptr inbounds nuw i8, ptr %2, i64 9184
  %5 = load i64, ptr %ss_size.i, align 8
  %cmp.i.not = icmp ult i64 %sub.i, %5
  br i1 %cmp.i.not, label %return, label %if.end

if.end:                                           ; preds = %entry
  %ss_flags = getelementptr inbounds nuw i8, ptr %uss, i64 8
  %ss_flags.val = load i32, ptr %ss_flags, align 1
  switch i32 %ss_flags.val, label %return [
    i32 2, label %sw.epilog
    i32 1, label %sw.bb15
    i32 0, label %sw.bb15
  ]

sw.bb15:                                          ; preds = %if.end, %if.end
  %cmp = icmp ult i64 %ss_size.val, 2048
  br i1 %cmp, label %return, label %sw.epilog

sw.epilog:                                        ; preds = %if.end, %sw.bb15
  %ss.sroa.5.0 = phi i64 [ %ss_size.val, %sw.bb15 ], [ 0, %if.end ]
  %ss.sroa.0.0 = phi i64 [ %uss.val, %sw.bb15 ], [ 0, %if.end ]
  store i64 %ss.sroa.0.0, ptr %sigaltstack_used.i, align 8
  store i64 %ss.sroa.5.0, ptr %ss_size.i, align 8
  br label %return

return:                                           ; preds = %sw.bb15, %if.end, %entry, %sw.epilog
  %retval.0 = phi i64 [ 0, %sw.epilog ], [ -1, %entry ], [ -22, %if.end ], [ -12, %sw.bb15 ]
  ret i64 %retval.0
}